; Function Attrs: nounwind uwtable
define dso_local void @EventTriggerTableRewrite(ptr noundef %0, i32 noundef %1, i32 noundef %2) local_unnamed_addr #0 {
  %4 = alloca %struct.EventTriggerData, align 8
  %5 = alloca [1 x %struct.__jmp_buf_tag], align 16
  call void @llvm.lifetime.start.p0(i64 32, ptr nonnull %4) #16
  %6 = load i8, ptr @IsUnderPostmaster, align 1, !range !9, !noundef !10
  %7 = trunc nuw i8 %6 to i1
  br i1 %7, label %8, label %EventTriggerCommonSetup.exit.thread

8:                                                ; preds = %3
  %9 = load i8, ptr @event_triggers, align 1, !range !9, !noundef !10
  %10 = trunc nuw i8 %9 to i1
  %11 = load ptr, ptr @currentEventTriggerState, align 8
  %.not = icmp ne ptr %11, null
  %or.cond.not = select i1 %10, i1 %.not, i1 false
  br i1 %or.cond.not, label %12, label %EventTriggerCommonSetup.exit.thread

12:                                               ; preds = %8
  %13 = call ptr @EventCacheLookup(i32 noundef 3) #16
  %14 = icmp eq ptr %13, null
  br i1 %14, label %EventTriggerCommonSetup.exit.thread, label %15

15:                                               ; preds = %12
  %16 = call i32 @CreateCommandTag(ptr noundef %0) #16
  %17 = getelementptr inbounds nuw i8, ptr %13, i64 4
  %18 = load i32, ptr %17, align 4
  %.not31.i = icmp sgt i32 %18, 0
  br i1 %.not31.i, label %.lr.ph.i, label %EventTriggerCommonSetup.exit.thread

.lr.ph.i:                                         ; preds = %15
  %19 = getelementptr inbounds nuw i8, ptr %13, i64 16
  br label %.lr.ph.split.i

._crit_edge.i:                                    ; preds = %filter_event_trigger.exit.thread.i
  %20 = icmp eq ptr %.1.i, null
  br i1 %20, label %EventTriggerCommonSetup.exit.thread, label %42

.lr.ph.split.i:                                   ; preds = %filter_event_trigger.exit.thread.i, %.lr.ph.i
  %indvars.iv.i = phi i64 [ %indvars.iv.next.i, %filter_event_trigger.exit.thread.i ], [ 0, %.lr.ph.i ]
  %.02532.i = phi ptr [ %.1.i, %filter_event_trigger.exit.thread.i ], [ null, %.lr.ph.i ]
  %21 = load ptr, ptr %19, align 8
  %22 = getelementptr inbounds nuw %union.ListCell, ptr %21, i64 %indvars.iv.i
  %23 = load ptr, ptr %22, align 8
  %24 = load i32, ptr @SessionReplicationRole, align 4
  %25 = icmp eq i32 %24, 1
  %26 = getelementptr inbounds nuw i8, ptr %23, i64 4
  %27 = load i8, ptr %26, align 4
  br i1 %25, label %28, label %30

28:                                               ; preds = %.lr.ph.split.i
  %29 = icmp eq i8 %27, 79
  br i1 %29, label %filter_event_trigger.exit.thread.i, label %32

30:                                               ; preds = %.lr.ph.split.i
  %31 = icmp eq i8 %27, 82
  br i1 %31, label %filter_event_trigger.exit.thread.i, label %32

32:                                               ; preds = %30, %28
  %33 = getelementptr inbounds nuw i8, ptr %23, i64 8
  %34 = load ptr, ptr %33, align 8
  %35 = icmp eq ptr %34, null
  br i1 %35, label %filter_event_trigger.exit.i, label %36

36:                                               ; preds = %32
  %37 = call zeroext i1 @bms_is_member(i32 noundef %16, ptr noundef nonnull %34) #16
  br i1 %37, label %filter_event_trigger.exit.i, label %filter_event_trigger.exit.thread.i

filter_event_trigger.exit.i:                      ; preds = %36, %32
  %38 = load i32, ptr %23, align 8
  %39 = call ptr @lappend_oid(ptr noundef %.02532.i, i32 noundef %38) #16
  br label %filter_event_trigger.exit.thread.i

filter_event_trigger.exit.thread.i:               ; preds = %filter_event_trigger.exit.i, %36, %30, %28
  %.1.i = phi ptr [ %39, %filter_event_trigger.exit.i ], [ %.02532.i, %28 ], [ %.02532.i, %30 ], [ %.02532.i, %36 ]
  %indvars.iv.next.i = add nuw nsw i64 %indvars.iv.i, 1
  %40 = load i32, ptr %17, align 4
  %41 = sext i32 %40 to i64
  %.not.i = icmp slt i64 %indvars.iv.next.i, %41
  br i1 %.not.i, label %.lr.ph.split.i, label %._crit_edge.i, !llvm.loop !11

42:                                               ; preds = %._crit_edge.i
  store i32 440, ptr %4, align 8
  %43 = getelementptr inbounds nuw i8, ptr %4, i64 8
  store ptr @.str.7, ptr %43, align 8
  %44 = getelementptr inbounds nuw i8, ptr %4, i64 16
  store ptr %0, ptr %44, align 8
  %45 = getelementptr inbounds nuw i8, ptr %4, i64 24
  store i32 %16, ptr %45, align 8
  %46 = load ptr, ptr @currentEventTriggerState, align 8
  %47 = getelementptr inbounds nuw i8, ptr %46, i64 20
  store i32 %1, ptr %47, align 4
  %48 = getelementptr inbounds nuw i8, ptr %46, i64 24
  store i32 %2, ptr %48, align 8
  %49 = load ptr, ptr @PG_exception_stack, align 8
  %50 = load ptr, ptr @error_context_stack, align 8
  call void @llvm.lifetime.start.p0(i64 200, ptr nonnull %5) #16
  %51 = call i32 @__sigsetjmp(ptr noundef nonnull %5, i32 noundef 0) #19
  %.not11 = icmp eq i32 %51, 0
  br i1 %.not11, label %52, label %.critedge

52:                                               ; preds = %42
  store ptr %5, ptr @PG_exception_stack, align 8
  call fastcc void @EventTriggerInvoke(ptr noundef %.1.i, ptr noundef %4)
  %53 = load ptr, ptr @currentEventTriggerState, align 8
  %54 = getelementptr inbounds nuw i8, ptr %53, i64 20
  store i32 0, ptr %54, align 4
  %55 = getelementptr inbounds nuw i8, ptr %53, i64 24
  store i32 0, ptr %55, align 8
  store ptr %49, ptr @PG_exception_stack, align 8
  store ptr %50, ptr @error_context_stack, align 8
  call void @llvm.lifetime.end.p0(i64 200, ptr nonnull %5) #16
  call void @list_free(ptr noundef nonnull %.1.i) #16
  call void @CommandCounterIncrement() #16
  br label %EventTriggerCommonSetup.exit.thread

.critedge:                                        ; preds = %42
  store ptr %49, ptr @PG_exception_stack, align 8
  store ptr %50, ptr @error_context_stack, align 8
  %56 = load ptr, ptr @currentEventTriggerState, align 8
  %57 = getelementptr inbounds nuw i8, ptr %56, i64 20
  store i32 0, ptr %57, align 4
  %58 = getelementptr inbounds nuw i8, ptr %56, i64 24
  store i32 0, ptr %58, align 8
  call void @pg_re_throw() #20
  unreachable

EventTriggerCommonSetup.exit.thread:              ; preds = %15, %._crit_edge.i, %12, %3, %8, %52
  call void @llvm.lifetime.end.p0(i64 32, ptr nonnull %4) #16
  ret void
}